target datalayout = "e-m:e-p270:32:32-p271:32:32-p272:64:64-i64:64-i128:128-f80:128-n8:16:32:64-S128"
target triple = "x86_64-pc-linux-gnu"

%struct.SpecifierOptList = type { ptr, i32, ptr, i32 }
%struct.OptionGroup = type { ptr, ptr, ptr, i32, ptr, ptr, ptr, ptr }
%struct.OptionsContext = type { ptr, i64, i64, i32, ptr, %struct.SpecifierOptList, %struct.SpecifierOptList, %struct.SpecifierOptList, %struct.SpecifierOptList, %struct.SpecifierOptList, %struct.SpecifierOptList, %struct.SpecifierOptList, %struct.SpecifierOptList, i64, i32, i32, float, float, double, i32, i32, i32, i32, %struct.SpecifierOptList, %struct.SpecifierOptList, %struct.SpecifierOptList, %struct.SpecifierOptList, %struct.SpecifierOptList, %struct.SpecifierOptList, %struct.SpecifierOptList, ptr, i32, ptr, i32, i32, i64, i64, i64, float, float, float, i32, i32, i32, i32, i32, i32, ptr, %struct.SpecifierOptList, %struct.SpecifierOptList, %struct.SpecifierOptList, %struct.SpecifierOptList, %struct.SpecifierOptList, %struct.SpecifierOptList, %struct.SpecifierOptList, %struct.SpecifierOptList, %struct.SpecifierOptList, %struct.SpecifierOptList, %struct.SpecifierOptList, %struct.SpecifierOptList, %struct.SpecifierOptList, %struct.SpecifierOptList, %struct.SpecifierOptList, %struct.SpecifierOptList, %struct.SpecifierOptList, %struct.SpecifierOptList, %struct.SpecifierOptList, %struct.SpecifierOptList, %struct.SpecifierOptList, %struct.SpecifierOptList, %struct.SpecifierOptList, %struct.SpecifierOptList, %struct.SpecifierOptList, %struct.SpecifierOptList, %struct.SpecifierOptList, %struct.SpecifierOptList, %struct.SpecifierOptList, %struct.SpecifierOptList, %struct.SpecifierOptList, %struct.SpecifierOptList, %struct.SpecifierOptList, %struct.SpecifierOptList, %struct.SpecifierOptList, %struct.SpecifierOptList, %struct.SpecifierOptList, %struct.SpecifierOptList, %struct.SpecifierOptList, %struct.SpecifierOptList, %struct.SpecifierOptList, %struct.SpecifierOptList, %struct.SpecifierOptList, %struct.SpecifierOptList, %struct.SpecifierOptList, %struct.SpecifierOptList, %struct.SpecifierOptList, %struct.SpecifierOptList, %struct.SpecifierOptList }

@.str.397 = private unnamed_addr constant [2 x i8] c"b\00", align 1
@.str.432 = private unnamed_addr constant [3 x i8] c"ab\00", align 1
@.str.564 = private unnamed_addr constant [4 x i8] c"b:v\00", align 1
@.str.570 = private unnamed_addr constant [4 x i8] c"b:a\00", align 1
@.str.623 = private unnamed_addr constant [42 x i8] c"Please use -b:a or -b:v, -b is ambiguous\0A\00", align 1

; Function Attrs: nounwind uwtable
define internal i32 @opt_bitrate(ptr noundef %0, ptr noundef %1, ptr noundef %2) #0 {
  %4 = alloca i32, align 4
  %5 = alloca ptr, align 8
  %6 = alloca ptr, align 8
  %7 = alloca ptr, align 8
  %8 = alloca ptr, align 8
  %9 = alloca i32, align 4
  store ptr %0, ptr %5, align 8, !tbaa !26
  store ptr %1, ptr %6, align 8, !tbaa !23
  store ptr %2, ptr %7, align 8, !tbaa !23
  call void @llvm.lifetime.start.p0(i64 8, ptr %8) #12
  %10 = load ptr, ptr %5, align 8, !tbaa !26
  store ptr %10, ptr %8, align 8, !tbaa !151
  %11 = load ptr, ptr %6, align 8, !tbaa !23
  %12 = call i32 @strcmp(ptr noundef %11, ptr noundef @.str.432) #13
  %13 = icmp ne i32 %12, 0
  br i1 %13, label %21, label %14

14:                                               ; preds = %3
  %15 = load ptr, ptr %8, align 8, !tbaa !151
  %16 = getelementptr inbounds nuw %struct.OptionsContext, ptr %15, i32 0, i32 0
  %17 = load ptr, ptr %16, align 8, !tbaa !125
  %18 = getelementptr inbounds nuw %struct.OptionGroup, ptr %17, i32 0, i32 4
  %19 = load ptr, ptr %7, align 8, !tbaa !23
  %20 = call i32 @av_dict_set(ptr noundef %18, ptr noundef @.str.570, ptr noundef %19, i32 noundef 0)
  store i32 0, ptr %4, align 4
  store i32 1, ptr %9, align 4
  br label %41

21:                                               ; preds = %3
  %22 = load ptr, ptr %6, align 8, !tbaa !23
  %23 = call i32 @strcmp(ptr noundef %22, ptr noundef @.str.397) #13
  %24 = icmp ne i32 %23, 0
  br i1 %24, label %32, label %25

25:                                               ; preds = %21
  call void (ptr, i32, ptr, ...) @av_log(ptr noundef null, i32 noundef 24, ptr noundef @.str.623)
  %26 = load ptr, ptr %8, align 8, !tbaa !151
  %27 = getelementptr inbounds nuw %struct.OptionsContext, ptr %26, i32 0, i32 0
  %28 = load ptr, ptr %27, align 8, !tbaa !125
  %29 = getelementptr inbounds nuw %struct.OptionGroup, ptr %28, i32 0, i32 4
  %30 = load ptr, ptr %7, align 8, !tbaa !23
  %31 = call i32 @av_dict_set(ptr noundef %29, ptr noundef @.str.564, ptr noundef %30, i32 noundef 0)
  store i32 0, ptr %4, align 4
  store i32 1, ptr %9, align 4
  br label %41

32:                                               ; preds = %21
  br label %33

33:                                               ; preds = %32
  %34 = load ptr, ptr %8, align 8, !tbaa !151
  %35 = getelementptr inbounds nuw %struct.OptionsContext, ptr %34, i32 0, i32 0
  %36 = load ptr, ptr %35, align 8, !tbaa !125
  %37 = getelementptr inbounds nuw %struct.OptionGroup, ptr %36, i32 0, i32 4
  %38 = load ptr, ptr %6, align 8, !tbaa !23
  %39 = load ptr, ptr %7, align 8, !tbaa !23
  %40 = call i32 @av_dict_set(ptr noundef %37, ptr noundef %38, ptr noundef %39, i32 noundef 0)
  store i32 0, ptr %4, align 4
  store i32 1, ptr %9, align 4
  br label %41

41:                                               ; preds = %33, %25, %14
  call void @llvm.lifetime.end.p0(i64 8, ptr %8) #12
  %42 = load i32, ptr %4, align 4
  ret i32 %42
}