; Function Attrs: nounwind uwtable
define internal noundef i32 @opt_bitrate(ptr noundef readonly captures(none) %0, ptr noundef %1, ptr noundef %2) #0 {
sub_0:
  %3 = load i8, ptr %1, align 1
  switch i8 %3, label %.tail11.thread [
    i8 97, label %sub_1
    i8 98, label %.tail11
  ]

sub_1:                                            ; preds = %sub_0
  %4 = getelementptr inbounds nuw i8, ptr %1, i64 1
  %5 = load i8, ptr %4, align 1
  %.not16 = icmp eq i8 %5, 98
  br i1 %.not16, label %.tail, label %.tail11.thread

.tail:                                            ; preds = %sub_1
  %6 = getelementptr inbounds nuw i8, ptr %1, i64 2
  %7 = load i8, ptr %6, align 1
  %8 = icmp eq i8 %7, 0
  br i1 %8, label %13, label %.tail11.thread

.tail11:                                          ; preds = %sub_0
  %9 = getelementptr inbounds nuw i8, ptr %1, i64 1
  %10 = load i8, ptr %9, align 1
  %11 = icmp eq i8 %10, 0
  br i1 %11, label %12, label %.tail11.thread

12:                                               ; preds = %.tail11
  tail call void (ptr, i32, ptr, ...) @av_log(ptr noundef null, i32 noundef 24, ptr noundef nonnull @.str.623) #15
  br label %13

.tail11.thread:                                   ; preds = %sub_0, %.tail, %sub_1, %.tail11
  br label %13

13:                                               ; preds = %.tail, %.tail11.thread, %12
  %.sink23 = phi ptr [ %1, %.tail11.thread ], [ @.str.564, %12 ], [ @.str.570, %.tail ]
  %14 = load ptr, ptr %0, align 8, !tbaa !114
  %15 = getelementptr inbounds nuw i8, ptr %14, i64 32
  %16 = tail call i32 @av_dict_set(ptr noundef nonnull %15, ptr noundef nonnull %.sink23, ptr noundef %2, i32 noundef 0) #15
  ret i32 0
}